target datalayout = "e-m:e-p270:32:32-p271:32:32-p272:64:64-i64:64-i128:128-f80:128-n8:16:32:64-S128"
target triple = "x86_64-pc-linux-gnu"

%struct.OnConflictExpr = type { i32, i32, ptr, ptr, i32, ptr, ptr, i32, ptr }

; Function Attrs: nounwind uwtable
define internal zeroext i1 @_equalOnConflictExpr(ptr noundef %0, ptr noundef %1) #0 {
  %3 = alloca i1, align 1
  %4 = alloca ptr, align 8
  %5 = alloca ptr, align 8
  store ptr %0, ptr %4, align 8
  store ptr %1, ptr %5, align 8
  br label %6

6:                                                ; preds = %2
  %7 = load ptr, ptr %4, align 8
  %8 = getelementptr inbounds nuw %struct.OnConflictExpr, ptr %7, i32 0, i32 1
  %9 = load i32, ptr %8, align 4
  %10 = load ptr, ptr %5, align 8
  %11 = getelementptr inbounds nuw %struct.OnConflictExpr, ptr %10, i32 0, i32 1
  %12 = load i32, ptr %11, align 4
  %13 = icmp ne i32 %9, %12
  br i1 %13, label %14, label %15

14:                                               ; preds = %6
  store i1 false, ptr %3, align 1
  br label %94

15:                                               ; preds = %6
  br label %16

16:                                               ; preds = %15
  br label %17

17:                                               ; preds = %16
  %18 = load ptr, ptr %4, align 8
  %19 = getelementptr inbounds nuw %struct.OnConflictExpr, ptr %18, i32 0, i32 2
  %20 = load ptr, ptr %19, align 8
  %21 = load ptr, ptr %5, align 8
  %22 = getelementptr inbounds nuw %struct.OnConflictExpr, ptr %21, i32 0, i32 2
  %23 = load ptr, ptr %22, align 8
  %24 = call zeroext i1 @equal(ptr noundef %20, ptr noundef %23)
  br i1 %24, label %26, label %25

25:                                               ; preds = %17
  store i1 false, ptr %3, align 1
  br label %94

26:                                               ; preds = %17
  br label %27

27:                                               ; preds = %26
  br label %28

28:                                               ; preds = %27
  %29 = load ptr, ptr %4, align 8
  %30 = getelementptr inbounds nuw %struct.OnConflictExpr, ptr %29, i32 0, i32 3
  %31 = load ptr, ptr %30, align 8
  %32 = load ptr, ptr %5, align 8
  %33 = getelementptr inbounds nuw %struct.OnConflictExpr, ptr %32, i32 0, i32 3
  %34 = load ptr, ptr %33, align 8
  %35 = call zeroext i1 @equal(ptr noundef %31, ptr noundef %34)
  br i1 %35, label %37, label %36

36:                                               ; preds = %28
  store i1 false, ptr %3, align 1
  br label %94

37:                                               ; preds = %28
  br label %38

38:                                               ; preds = %37
  br label %39

39:                                               ; preds = %38
  %40 = load ptr, ptr %4, align 8
  %41 = getelementptr inbounds nuw %struct.OnConflictExpr, ptr %40, i32 0, i32 4
  %42 = load i32, ptr %41, align 8
  %43 = load ptr, ptr %5, align 8
  %44 = getelementptr inbounds nuw %struct.OnConflictExpr, ptr %43, i32 0, i32 4
  %45 = load i32, ptr %44, align 8
  %46 = icmp ne i32 %42, %45
  br i1 %46, label %47, label %48

47:                                               ; preds = %39
  store i1 false, ptr %3, align 1
  br label %94

48:                                               ; preds = %39
  br label %49

49:                                               ; preds = %48
  br label %50

50:                                               ; preds = %49
  %51 = load ptr, ptr %4, align 8
  %52 = getelementptr inbounds nuw %struct.OnConflictExpr, ptr %51, i32 0, i32 5
  %53 = load ptr, ptr %52, align 8
  %54 = load ptr, ptr %5, align 8
  %55 = getelementptr inbounds nuw %struct.OnConflictExpr, ptr %54, i32 0, i32 5
  %56 = load ptr, ptr %55, align 8
  %57 = call zeroext i1 @equal(ptr noundef %53, ptr noundef %56)
  br i1 %57, label %59, label %58

58:                                               ; preds = %50
  store i1 false, ptr %3, align 1
  br label %94

59:                                               ; preds = %50
  br label %60

60:                                               ; preds = %59
  br label %61

61:                                               ; preds = %60
  %62 = load ptr, ptr %4, align 8
  %63 = getelementptr inbounds nuw %struct.OnConflictExpr, ptr %62, i32 0, i32 6
  %64 = load ptr, ptr %63, align 8
  %65 = load ptr, ptr %5, align 8
  %66 = getelementptr inbounds nuw %struct.OnConflictExpr, ptr %65, i32 0, i32 6
  %67 = load ptr, ptr %66, align 8
  %68 = call zeroext i1 @equal(ptr noundef %64, ptr noundef %67)
  br i1 %68, label %70, label %69

69:                                               ; preds = %61
  store i1 false, ptr %3, align 1
  br label %94

70:                                               ; preds = %61
  br label %71

71:                                               ; preds = %70
  br label %72

72:                                               ; preds = %71
  %73 = load ptr, ptr %4, align 8
  %74 = getelementptr inbounds nuw %struct.OnConflictExpr, ptr %73, i32 0, i32 7
  %75 = load i32, ptr %74, align 8
  %76 = load ptr, ptr %5, align 8
  %77 = getelementptr inbounds nuw %struct.OnConflictExpr, ptr %76, i32 0, i32 7
  %78 = load i32, ptr %77, align 8
  %79 = icmp ne i32 %75, %78
  br i1 %79, label %80, label %81

80:                                               ; preds = %72
  store i1 false, ptr %3, align 1
  br label %94

81:                                               ; preds = %72
  br label %82

82:                                               ; preds = %81
  br label %83

83:                                               ; preds = %82
  %84 = load ptr, ptr %4, align 8
  %85 = getelementptr inbounds nuw %struct.OnConflictExpr, ptr %84, i32 0, i32 8
  %86 = load ptr, ptr %85, align 8
  %87 = load ptr, ptr %5, align 8
  %88 = getelementptr inbounds nuw %struct.OnConflictExpr, ptr %87, i32 0, i32 8
  %89 = load ptr, ptr %88, align 8
  %90 = call zeroext i1 @equal(ptr noundef %86, ptr noundef %89)
  br i1 %90, label %92, label %91

91:                                               ; preds = %83
  store i1 false, ptr %3, align 1
  br label %94

92:                                               ; preds = %83
  br label %93

93:                                               ; preds = %92
  store i1 true, ptr %3, align 1
  br label %94

94:                                               ; preds = %93, %91, %80, %69, %58, %47, %36, %25, %14
  %95 = load i1, ptr %3, align 1
  ret i1 %95
}