; Function Attrs: nounwind uwtable
define internal fastcc zeroext i1 @_equalOnConflictExpr(ptr noundef nonnull readonly captures(none) %0, ptr noundef nonnull readonly captures(none) %1) unnamed_addr #0 {
  %3 = getelementptr inbounds nuw i8, ptr %0, i64 4
  %4 = load i32, ptr %3, align 4
  %5 = getelementptr inbounds nuw i8, ptr %1, i64 4
  %6 = load i32, ptr %5, align 4
  %.not = icmp eq i32 %4, %6
  br i1 %.not, label %7, label %47

7:                                                ; preds = %2
  %8 = getelementptr inbounds nuw i8, ptr %0, i64 8
  %9 = load ptr, ptr %8, align 8
  %10 = getelementptr inbounds nuw i8, ptr %1, i64 8
  %11 = load ptr, ptr %10, align 8
  %12 = tail call zeroext i1 @equal(ptr noundef %9, ptr noundef %11)
  br i1 %12, label %13, label %47

13:                                               ; preds = %7
  %14 = getelementptr inbounds nuw i8, ptr %0, i64 16
  %15 = load ptr, ptr %14, align 8
  %16 = getelementptr inbounds nuw i8, ptr %1, i64 16
  %17 = load ptr, ptr %16, align 8
  %18 = tail call zeroext i1 @equal(ptr noundef %15, ptr noundef %17)
  br i1 %18, label %19, label %47

19:                                               ; preds = %13
  %20 = getelementptr inbounds nuw i8, ptr %0, i64 24
  %21 = load i32, ptr %20, align 8
  %22 = getelementptr inbounds nuw i8, ptr %1, i64 24
  %23 = load i32, ptr %22, align 8
  %.not17 = icmp eq i32 %21, %23
  br i1 %.not17, label %24, label %47

24:                                               ; preds = %19
  %25 = getelementptr inbounds nuw i8, ptr %0, i64 32
  %26 = load ptr, ptr %25, align 8
  %27 = getelementptr inbounds nuw i8, ptr %1, i64 32
  %28 = load ptr, ptr %27, align 8
  %29 = tail call zeroext i1 @equal(ptr noundef %26, ptr noundef %28)
  br i1 %29, label %30, label %47

30:                                               ; preds = %24
  %31 = getelementptr inbounds nuw i8, ptr %0, i64 40
  %32 = load ptr, ptr %31, align 8
  %33 = getelementptr inbounds nuw i8, ptr %1, i64 40
  %34 = load ptr, ptr %33, align 8
  %35 = tail call zeroext i1 @equal(ptr noundef %32, ptr noundef %34)
  br i1 %35, label %36, label %47

36:                                               ; preds = %30
  %37 = getelementptr inbounds nuw i8, ptr %0, i64 48
  %38 = load i32, ptr %37, align 8
  %39 = getelementptr inbounds nuw i8, ptr %1, i64 48
  %40 = load i32, ptr %39, align 8
  %.not18 = icmp eq i32 %38, %40
  br i1 %.not18, label %41, label %47

41:                                               ; preds = %36
  %42 = getelementptr inbounds nuw i8, ptr %0, i64 56
  %43 = load ptr, ptr %42, align 8
  %44 = getelementptr inbounds nuw i8, ptr %1, i64 56
  %45 = load ptr, ptr %44, align 8
  %46 = tail call zeroext i1 @equal(ptr noundef %43, ptr noundef %45)
  br label %47

47:                                               ; preds = %41, %36, %30, %24, %19, %13, %7, %2
  %.0 = phi i1 [ false, %2 ], [ false, %7 ], [ false, %13 ], [ false, %19 ], [ false, %24 ], [ false, %30 ], [ false, %36 ], [ %46, %41 ]
  ret i1 %.0
}